target datalayout = "e-m:e-p270:32:32-p271:32:32-p272:64:64-i64:64-i128:128-f80:128-n8:16:32:64-S128"
target triple = "x86_64-unknown-linux-gnu"

%"struct.Imf_3_2::DeepScanLineInputFile::Data" = type <{ %"class.std::mutex", %"class.Imf_3_2::Header", i32, [4 x i8], %"class.Imf_3_2::DeepFrameBuffer", i32, i32, i32, i32, i32, [4 x i8], %"class.std::vector", i8, [3 x i8], i32, %"class.std::vector", %"class.std::vector", %"class.std::vector.11", %"class.std::vector.16", i32, i32, i32, i8, [3 x i8], ptr, i8, i8, [6 x i8], %"class.Imf_3_2::Array2D", %"class.Imf_3_2::Array", %"class.Imf_3_2::Array.21", ptr, i32, i32, i8, [7 x i8], %"class.Imf_3_2::Array.22", ptr, i32, i32, ptr, i8, [7 x i8] }>
%"class.std::mutex" = type { %"class.std::__mutex_base" }
%"class.std::__mutex_base" = type { %union.pthread_mutex_t }
%union.pthread_mutex_t = type { %struct.__pthread_mutex_s }
%struct.__pthread_mutex_s = type { i32, i32, i32, i32, i32, i16, i16, %struct.__pthread_internal_list }
%struct.__pthread_internal_list = type { ptr, ptr }
%"class.Imf_3_2::Header" = type <{ %"class.std::map", i8, [7 x i8] }>
%"class.std::map" = type { %"class.std::_Rb_tree" }
%"class.std::_Rb_tree" = type { %"struct.std::_Rb_tree<Imf_3_2::Name, std::pair<const Imf_3_2::Name, Imf_3_2::Attribute *>, std::_Select1st<std::pair<const Imf_3_2::Name, Imf_3_2::Attribute *>>, std::less<Imf_3_2::Name>>::_Rb_tree_impl" }
%"struct.std::_Rb_tree<Imf_3_2::Name, std::pair<const Imf_3_2::Name, Imf_3_2::Attribute *>, std::_Select1st<std::pair<const Imf_3_2::Name, Imf_3_2::Attribute *>>, std::less<Imf_3_2::Name>>::_Rb_tree_impl" = type { %"struct.std::_Rb_tree_key_compare", %"struct.std::_Rb_tree_header" }
%"struct.std::_Rb_tree_key_compare" = type { %"struct.std::less" }
%"struct.std::less" = type { i8 }
%"struct.std::_Rb_tree_header" = type { %"struct.std::_Rb_tree_node_base", i64 }
%"struct.std::_Rb_tree_node_base" = type { i32, ptr, ptr, ptr }
%"class.Imf_3_2::DeepFrameBuffer" = type { %"class.std::map.3", %"struct.Imf_3_2::Slice" }
%"class.std::map.3" = type { %"class.std::_Rb_tree.4" }
%"class.std::_Rb_tree.4" = type { %"struct.std::_Rb_tree<Imf_3_2::Name, std::pair<const Imf_3_2::Name, Imf_3_2::DeepSlice>, std::_Select1st<std::pair<const Imf_3_2::Name, Imf_3_2::DeepSlice>>, std::less<Imf_3_2::Name>>::_Rb_tree_impl" }
%"struct.std::_Rb_tree<Imf_3_2::Name, std::pair<const Imf_3_2::Name, Imf_3_2::DeepSlice>, std::_Select1st<std::pair<const Imf_3_2::Name, Imf_3_2::DeepSlice>>, std::less<Imf_3_2::Name>>::_Rb_tree_impl" = type { %"struct.std::_Rb_tree_key_compare", %"struct.std::_Rb_tree_header" }
%"struct.Imf_3_2::Slice" = type <{ i32, [4 x i8], ptr, i64, i64, i32, i32, double, i8, i8, [6 x i8] }>
%"class.std::vector" = type { %"struct.std::_Vector_base" }
%"struct.std::_Vector_base" = type { %"struct.std::_Vector_base<unsigned long, std::allocator<unsigned long>>::_Vector_impl" }
%"struct.std::_Vector_base<unsigned long, std::allocator<unsigned long>>::_Vector_impl" = type { %"struct.std::_Vector_base<unsigned long, std::allocator<unsigned long>>::_Vector_impl_data" }
%"struct.std::_Vector_base<unsigned long, std::allocator<unsigned long>>::_Vector_impl_data" = type { ptr, ptr, ptr }
%"class.std::vector.11" = type { %"struct.std::_Vector_base.12" }
%"struct.std::_Vector_base.12" = type { %"struct.std::_Vector_base<Imf_3_2::(anonymous namespace)::InSliceInfo *, std::allocator<Imf_3_2::(anonymous namespace)::InSliceInfo *>>::_Vector_impl" }
%"struct.std::_Vector_base<Imf_3_2::(anonymous namespace)::InSliceInfo *, std::allocator<Imf_3_2::(anonymous namespace)::InSliceInfo *>>::_Vector_impl" = type { %"struct.std::_Vector_base<Imf_3_2::(anonymous namespace)::InSliceInfo *, std::allocator<Imf_3_2::(anonymous namespace)::InSliceInfo *>>::_Vector_impl_data" }
%"struct.std::_Vector_base<Imf_3_2::(anonymous namespace)::InSliceInfo *, std::allocator<Imf_3_2::(anonymous namespace)::InSliceInfo *>>::_Vector_impl_data" = type { ptr, ptr, ptr }
%"class.std::vector.16" = type { %"struct.std::_Vector_base.17" }
%"struct.std::_Vector_base.17" = type { %"struct.std::_Vector_base<Imf_3_2::(anonymous namespace)::LineBuffer *, std::allocator<Imf_3_2::(anonymous namespace)::LineBuffer *>>::_Vector_impl" }
%"struct.std::_Vector_base<Imf_3_2::(anonymous namespace)::LineBuffer *, std::allocator<Imf_3_2::(anonymous namespace)::LineBuffer *>>::_Vector_impl" = type { %"struct.std::_Vector_base<Imf_3_2::(anonymous namespace)::LineBuffer *, std::allocator<Imf_3_2::(anonymous namespace)::LineBuffer *>>::_Vector_impl_data" }
%"struct.std::_Vector_base<Imf_3_2::(anonymous namespace)::LineBuffer *, std::allocator<Imf_3_2::(anonymous namespace)::LineBuffer *>>::_Vector_impl_data" = type { ptr, ptr, ptr }
%"class.Imf_3_2::Array2D" = type { i64, i64, ptr }
%"class.Imf_3_2::Array" = type { i64, ptr }
%"class.Imf_3_2::Array.21" = type { i64, ptr }
%"class.Imf_3_2::Array.22" = type { i64, ptr }
%"class.Imf_3_2::DeepScanLineInputFile" = type { %"class.Imf_3_2::GenericInputFile", ptr }
%"class.Imf_3_2::GenericInputFile" = type { ptr }
%"struct.Imf_3_2::InputPartData" = type <{ %"class.Imf_3_2::Header", i32, i32, i32, [4 x i8], ptr, %"class.std::vector", i8, [7 x i8] }>
%"struct.Imf_3_2::InputStreamMutex" = type { %"class.std::mutex", ptr, i64 }

@_ZTVN7Imf_3_221DeepScanLineInputFileE = unnamed_addr constant { [4 x ptr] } { [4 x ptr] [ptr null, ptr @_ZTIN7Imf_3_221DeepScanLineInputFileE, ptr @_ZN7Imf_3_221DeepScanLineInputFileD1Ev, ptr @_ZN7Imf_3_221DeepScanLineInputFileD0Ev] }, align 8
@_ZN7Imf_3_221DeepScanLineInputFile4DataC1Ei = hidden unnamed_addr alias void (ptr, i32), ptr @_ZN7Imf_3_221DeepScanLineInputFile4DataC2Ei
@_ZN7Imf_3_221DeepScanLineInputFile4DataD1Ev = hidden unnamed_addr alias void (ptr), ptr @_ZN7Imf_3_221DeepScanLineInputFile4DataD2Ev

; Function Attrs: mustprogress uwtable
define void @_ZN7Imf_3_221DeepScanLineInputFileC2EPNS_13InputPartDataE(ptr noundef nonnull align 8 dereferenceable(16) %this, ptr noundef %part) unnamed_addr #4 align 2 personality ptr @__gxx_personality_v0 {
entry:
  %this.addr = alloca ptr, align 8
  %part.addr = alloca ptr, align 8
  %exn.slot = alloca ptr, align 8
  %ehselector.slot = alloca i32, align 4
  store ptr %this, ptr %this.addr, align 8
  store ptr %part, ptr %part.addr, align 8
  %this1 = load ptr, ptr %this.addr, align 8
  call void @_ZN7Imf_3_216GenericInputFileC2Ev(ptr noundef nonnull align 8 dereferenceable(8) %this1)
  store ptr getelementptr inbounds ({ [4 x ptr] }, ptr @_ZTVN7Imf_3_221DeepScanLineInputFileE, i32 0, i32 0, i32 2), ptr %this1, align 8
  %call = invoke noalias noundef nonnull ptr @_Znwm(i64 noundef 520) #19
          to label %invoke.cont unwind label %lpad

invoke.cont:                                      ; preds = %entry
  %0 = load ptr, ptr %part.addr, align 8
  %numThreads = getelementptr inbounds %"struct.Imf_3_2::InputPartData", ptr %0, i32 0, i32 1
  %1 = load i32, ptr %numThreads, align 8
  invoke void @_ZN7Imf_3_221DeepScanLineInputFile4DataC1Ei(ptr noundef nonnull align 8 dereferenceable(513) %call, i32 noundef %1)
          to label %invoke.cont3 unwind label %lpad2

invoke.cont3:                                     ; preds = %invoke.cont
  %_data = getelementptr inbounds %"class.Imf_3_2::DeepScanLineInputFile", ptr %this1, i32 0, i32 1
  store ptr %call, ptr %_data, align 8
  %_data4 = getelementptr inbounds %"class.Imf_3_2::DeepScanLineInputFile", ptr %this1, i32 0, i32 1
  %2 = load ptr, ptr %_data4, align 8
  %_deleteStream = getelementptr inbounds %"struct.Imf_3_2::DeepScanLineInputFile::Data", ptr %2, i32 0, i32 41
  store i8 0, ptr %_deleteStream, align 8
  %3 = load ptr, ptr %part.addr, align 8
  %mutex = getelementptr inbounds %"struct.Imf_3_2::InputPartData", ptr %3, i32 0, i32 5
  %4 = load ptr, ptr %mutex, align 8
  %_data5 = getelementptr inbounds %"class.Imf_3_2::DeepScanLineInputFile", ptr %this1, i32 0, i32 1
  %5 = load ptr, ptr %_data5, align 8
  %_streamData = getelementptr inbounds %"struct.Imf_3_2::DeepScanLineInputFile::Data", ptr %5, i32 0, i32 40
  store ptr %4, ptr %_streamData, align 8
  %_data6 = getelementptr inbounds %"class.Imf_3_2::DeepScanLineInputFile", ptr %this1, i32 0, i32 1
  %6 = load ptr, ptr %_data6, align 8
  %_streamData7 = getelementptr inbounds %"struct.Imf_3_2::DeepScanLineInputFile::Data", ptr %6, i32 0, i32 40
  %7 = load ptr, ptr %_streamData7, align 8
  %is = getelementptr inbounds %"struct.Imf_3_2::InputStreamMutex", ptr %7, i32 0, i32 1
  %8 = load ptr, ptr %is, align 8
  %vtable = load ptr, ptr %8, align 8
  %vfn = getelementptr inbounds ptr, ptr %vtable, i64 2
  %9 = load ptr, ptr %vfn, align 8
  %call9 = invoke noundef zeroext i1 %9(ptr noundef nonnull align 8 dereferenceable(40) %8)
          to label %invoke.cont8 unwind label %lpad

invoke.cont8:                                     ; preds = %invoke.cont3
  %_data10 = getelementptr inbounds %"class.Imf_3_2::DeepScanLineInputFile", ptr %this1, i32 0, i32 1
  %10 = load ptr, ptr %_data10, align 8
  %memoryMapped = getelementptr inbounds %"struct.Imf_3_2::DeepScanLineInputFile::Data", ptr %10, i32 0, i32 25
  %frombool = zext i1 %call9 to i8
  store i8 %frombool, ptr %memoryMapped, align 8
  %11 = load ptr, ptr %part.addr, align 8
  %version = getelementptr inbounds %"struct.Imf_3_2::InputPartData", ptr %11, i32 0, i32 3
  %12 = load i32, ptr %version, align 8
  %_data11 = getelementptr inbounds %"class.Imf_3_2::DeepScanLineInputFile", ptr %this1, i32 0, i32 1
  %13 = load ptr, ptr %_data11, align 8
  %version12 = getelementptr inbounds %"struct.Imf_3_2::DeepScanLineInputFile::Data", ptr %13, i32 0, i32 2
  store i32 %12, ptr %version12, align 8
  %14 = load ptr, ptr %part.addr, align 8
  %header = getelementptr inbounds %"struct.Imf_3_2::InputPartData", ptr %14, i32 0, i32 0
  invoke void @_ZN7Imf_3_221DeepScanLineInputFile10initializeERKNS_6HeaderE(ptr noundef nonnull align 8 dereferenceable(16) %this1, ptr noundef nonnull align 8 dereferenceable(49) %header)
          to label %invoke.cont14 unwind label %lpad13

invoke.cont14:                                    ; preds = %invoke.cont8
  br label %try.cont

lpad:                                             ; preds = %try.cont, %invoke.cont3, %entry
  %15 = landingpad { ptr, i32 }
          cleanup
  %16 = extractvalue { ptr, i32 } %15, 0
  store ptr %16, ptr %exn.slot, align 8
  %17 = extractvalue { ptr, i32 } %15, 1
  store i32 %17, ptr %ehselector.slot, align 4
  br label %ehcleanup

lpad2:                                            ; preds = %invoke.cont
  %18 = landingpad { ptr, i32 }
          cleanup
  %19 = extractvalue { ptr, i32 } %18, 0
  store ptr %19, ptr %exn.slot, align 8
  %20 = extractvalue { ptr, i32 } %18, 1
  store i32 %20, ptr %ehselector.slot, align 4
  call void @_ZdlPv(ptr noundef %call) #17
  br label %ehcleanup

lpad13:                                           ; preds = %invoke.cont8
  %21 = landingpad { ptr, i32 }
          catch ptr null
  %22 = extractvalue { ptr, i32 } %21, 0
  store ptr %22, ptr %exn.slot, align 8
  %23 = extractvalue { ptr, i32 } %21, 1
  store i32 %23, ptr %ehselector.slot, align 4
  br label %catch

catch:                                            ; preds = %lpad13
  %exn = load ptr, ptr %exn.slot, align 8
  %24 = call ptr @__cxa_begin_catch(ptr %exn) #3
  %_data15 = getelementptr inbounds %"class.Imf_3_2::DeepScanLineInputFile", ptr %this1, i32 0, i32 1
  %25 = load ptr, ptr %_data15, align 8
  %isnull = icmp eq ptr %25, null
  br i1 %isnull, label %delete.end, label %delete.notnull

delete.notnull:                                   ; preds = %catch
  call void @_ZN7Imf_3_221DeepScanLineInputFile4DataD1Ev(ptr noundef nonnull align 8 dereferenceable(513) %25) #3
  call void @_ZdlPv(ptr noundef %25) #17
  br label %delete.end

delete.end:                                       ; preds = %delete.notnull, %catch
  invoke void @__cxa_rethrow() #16
          to label %unreachable unwind label %lpad16

lpad16:                                           ; preds = %delete.end
  %26 = landingpad { ptr, i32 }
          cleanup
  %27 = extractvalue { ptr, i32 } %26, 0
  store ptr %27, ptr %exn.slot, align 8
  %28 = extractvalue { ptr, i32 } %26, 1
  store i32 %28, ptr %ehselector.slot, align 4
  invoke void @__cxa_end_catch()
          to label %invoke.cont17 unwind label %terminate.lpad

invoke.cont17:                                    ; preds = %lpad16
  br label %ehcleanup

try.cont:                                         ; preds = %invoke.cont14
  %29 = load ptr, ptr %part.addr, align 8
  %chunkOffsets = getelementptr inbounds %"struct.Imf_3_2::InputPartData", ptr %29, i32 0, i32 6
  %_data18 = getelementptr inbounds %"class.Imf_3_2::DeepScanLineInputFile", ptr %this1, i32 0, i32 1
  %30 = load ptr, ptr %_data18, align 8
  %lineOffsets = getelementptr inbounds %"struct.Imf_3_2::DeepScanLineInputFile::Data", ptr %30, i32 0, i32 11
  %call20 = invoke noundef nonnull align 8 dereferenceable(24) ptr @_ZNSt6vectorImSaImEEaSERKS1_(ptr noundef nonnull align 8 dereferenceable(24) %lineOffsets, ptr noundef nonnull align 8 dereferenceable(24) %chunkOffsets)
          to label %invoke.cont19 unwind label %lpad

invoke.cont19:                                    ; preds = %try.cont
  %31 = load ptr, ptr %part.addr, align 8
  %partNumber = getelementptr inbounds %"struct.Imf_3_2::InputPartData", ptr %31, i32 0, i32 2
  %32 = load i32, ptr %partNumber, align 4
  %_data21 = getelementptr inbounds %"class.Imf_3_2::DeepScanLineInputFile", ptr %this1, i32 0, i32 1
  %33 = load ptr, ptr %_data21, align 8
  %partNumber22 = getelementptr inbounds %"struct.Imf_3_2::DeepScanLineInputFile::Data", ptr %33, i32 0, i32 20
  store i32 %32, ptr %partNumber22, align 4
  ret void

ehcleanup:                                        ; preds = %invoke.cont17, %lpad2, %lpad
  call void @_ZN7Imf_3_216GenericInputFileD2Ev(ptr noundef nonnull align 8 dereferenceable(8) %this1) #3
  br label %eh.resume

eh.resume:                                        ; preds = %ehcleanup
  %exn23 = load ptr, ptr %exn.slot, align 8
  %sel = load i32, ptr %ehselector.slot, align 4
  %lpad.val = insertvalue { ptr, i32 } poison, ptr %exn23, 0
  %lpad.val24 = insertvalue { ptr, i32 } %lpad.val, i32 %sel, 1
  resume { ptr, i32 } %lpad.val24

terminate.lpad:                                   ; preds = %lpad16
  %34 = landingpad { ptr, i32 }
          catch ptr null
  %35 = extractvalue { ptr, i32 } %34, 0
  call void @__clang_call_terminate(ptr %35) #18
  unreachable

unreachable:                                      ; preds = %delete.end
  unreachable
}