; Function Attrs: mustprogress uwtable
define void @_ZN7Imf_3_221DeepScanLineInputFileC2EPNS_13InputPartDataE(ptr noundef nonnull align 8 dereferenceable(16) %this, ptr noundef %part) unnamed_addr #3 align 2 personality ptr @__gxx_personality_v0 {
entry:
  tail call void @_ZN7Imf_3_216GenericInputFileC2Ev(ptr noundef nonnull align 8 dereferenceable(8) %this)
  store ptr getelementptr inbounds ({ [4 x ptr] }, ptr @_ZTVN7Imf_3_221DeepScanLineInputFileE, i64 0, i32 0, i64 2), ptr %this, align 8
  %call = invoke noalias noundef nonnull dereferenceable(520) ptr @_Znwm(i64 noundef 520) #22
          to label %invoke.cont unwind label %lpad

invoke.cont:                                      ; preds = %entry
  %numThreads = getelementptr inbounds i8, ptr %part, i64 56
  %0 = load i32, ptr %numThreads, align 8
  invoke void @_ZN7Imf_3_221DeepScanLineInputFile4DataC2Ei(ptr noundef nonnull align 8 dereferenceable(513) %call, i32 noundef %0)
          to label %invoke.cont3 unwind label %lpad2

invoke.cont3:                                     ; preds = %invoke.cont
  %_data = getelementptr inbounds i8, ptr %this, i64 8
  store ptr %call, ptr %_data, align 8
  %_deleteStream = getelementptr inbounds i8, ptr %call, i64 512
  store i8 0, ptr %_deleteStream, align 8
  %mutex = getelementptr inbounds i8, ptr %part, i64 72
  %1 = load ptr, ptr %mutex, align 8
  %_streamData = getelementptr inbounds i8, ptr %call, i64 504
  store ptr %1, ptr %_streamData, align 8
  %is = getelementptr inbounds i8, ptr %1, i64 40
  %2 = load ptr, ptr %is, align 8
  %vtable = load ptr, ptr %2, align 8
  %vfn = getelementptr inbounds i8, ptr %vtable, i64 16
  %3 = load ptr, ptr %vfn, align 8
  %call9 = invoke noundef zeroext i1 %3(ptr noundef nonnull align 8 dereferenceable(40) %2)
          to label %invoke.cont8 unwind label %lpad

invoke.cont8:                                     ; preds = %invoke.cont3
  %4 = load ptr, ptr %_data, align 8
  %memoryMapped = getelementptr inbounds i8, ptr %4, i64 384
  %frombool = zext i1 %call9 to i8
  store i8 %frombool, ptr %memoryMapped, align 8
  %version = getelementptr inbounds i8, ptr %part, i64 64
  %5 = load i32, ptr %version, align 8
  %6 = load ptr, ptr %_data, align 8
  %version12 = getelementptr inbounds i8, ptr %6, i64 96
  store i32 %5, ptr %version12, align 8
  invoke void @_ZN7Imf_3_221DeepScanLineInputFile10initializeERKNS_6HeaderE(ptr noundef nonnull align 8 dereferenceable(16) %this, ptr noundef nonnull align 8 dereferenceable(49) %part)
          to label %try.cont unwind label %lpad13

lpad:                                             ; preds = %try.cont, %invoke.cont3, %entry
  %7 = landingpad { ptr, i32 }
          cleanup
  br label %ehcleanup

lpad2:                                            ; preds = %invoke.cont
  %8 = landingpad { ptr, i32 }
          cleanup
  tail call void @_ZdlPv(ptr noundef nonnull %call) #24
  br label %ehcleanup

lpad13:                                           ; preds = %invoke.cont8
  %9 = landingpad { ptr, i32 }
          catch ptr null
  %10 = extractvalue { ptr, i32 } %9, 0
  %11 = tail call ptr @__cxa_begin_catch(ptr %10) #21
  %12 = load ptr, ptr %_data, align 8
  %isnull = icmp eq ptr %12, null
  br i1 %isnull, label %delete.end, label %delete.notnull

delete.notnull:                                   ; preds = %lpad13
  tail call void @_ZN7Imf_3_221DeepScanLineInputFile4DataD2Ev(ptr noundef nonnull align 8 dereferenceable(513) %12) #21
  tail call void @_ZdlPv(ptr noundef nonnull %12) #24
  br label %delete.end

delete.end:                                       ; preds = %delete.notnull, %lpad13
  invoke void @__cxa_rethrow() #25
          to label %unreachable unwind label %lpad16

lpad16:                                           ; preds = %delete.end
  %13 = landingpad { ptr, i32 }
          cleanup
  invoke void @__cxa_end_catch()
          to label %ehcleanup unwind label %terminate.lpad

try.cont:                                         ; preds = %invoke.cont8
  %chunkOffsets = getelementptr inbounds i8, ptr %part, i64 80
  %14 = load ptr, ptr %_data, align 8
  %lineOffsets = getelementptr inbounds i8, ptr %14, i64 232
  %call20 = invoke noundef nonnull align 8 dereferenceable(24) ptr @_ZNSt6vectorImSaImEEaSERKS1_(ptr noundef nonnull align 8 dereferenceable(24) %lineOffsets, ptr noundef nonnull align 8 dereferenceable(24) %chunkOffsets)
          to label %invoke.cont19 unwind label %lpad

invoke.cont19:                                    ; preds = %try.cont
  %partNumber = getelementptr inbounds i8, ptr %part, i64 60
  %15 = load i32, ptr %partNumber, align 4
  %16 = load ptr, ptr %_data, align 8
  %partNumber22 = getelementptr inbounds i8, ptr %16, i64 364
  store i32 %15, ptr %partNumber22, align 4
  ret void

ehcleanup:                                        ; preds = %lpad16, %lpad2, %lpad
  %.pn = phi { ptr, i32 } [ %7, %lpad ], [ %13, %lpad16 ], [ %8, %lpad2 ]
  tail call void @_ZN7Imf_3_216GenericInputFileD2Ev(ptr noundef nonnull align 8 dereferenceable(8) %this) #21
  resume { ptr, i32 } %.pn

terminate.lpad:                                   ; preds = %lpad16
  %17 = landingpad { ptr, i32 }
          catch ptr null
  %18 = extractvalue { ptr, i32 } %17, 0
  tail call void @__clang_call_terminate(ptr %18) #23
  unreachable

unreachable:                                      ; preds = %delete.end
  unreachable
}